; Function Attrs: nofree norecurse nosync nounwind memory(readwrite, inaccessiblemem: none) uwtable
define hidden range(i32 -2147483645, -2147483648) i32 @luaH_psetint(ptr noundef readonly captures(none) %0, i64 noundef %1, ptr noundef readonly captures(none) %2) local_unnamed_addr #8 {
  %4 = icmp ult i64 %1, 2147483648
  %5 = getelementptr inbounds nuw i8, ptr %0, i64 24
  %6 = load ptr, ptr %5, align 8, !tbaa !18
  br i1 %4, label %7, label %16

7:                                                ; preds = %3
  %8 = trunc nuw nsw i64 %1 to i32
  %9 = getelementptr inbounds nuw i8, ptr %0, i64 11
  %10 = load i8, ptr %9, align 1, !tbaa !20
  %11 = zext nneg i8 %10 to i32
  %notmask9.i.i = shl nsw i32 -1, %11
  %12 = xor i32 %notmask9.i.i, -1
  %13 = or i32 %12, 1
  %14 = urem i32 %8, %13
  %15 = zext nneg i32 %14 to i64
  br label %hashint.exit.i

16:                                               ; preds = %3
  %17 = getelementptr inbounds nuw i8, ptr %0, i64 11
  %18 = load i8, ptr %17, align 1, !tbaa !20
  %19 = zext nneg i8 %18 to i32
  %notmask.i.i = shl nsw i32 -1, %19
  %20 = xor i32 %notmask.i.i, -1
  %21 = or i32 %20, 1
  %22 = zext nneg i32 %21 to i64
  %23 = urem i64 %1, %22
  br label %hashint.exit.i

hashint.exit.i:                                   ; preds = %16, %7
  %.sink.i.i = phi i64 [ %23, %16 ], [ %15, %7 ]
  %24 = getelementptr inbounds nuw %union.Node, ptr %6, i64 %.sink.i.i
  br label %25

25:                                               ; preds = %33, %hashint.exit.i
  %.012.i = phi ptr [ %24, %hashint.exit.i ], [ %38, %33 ]
  %26 = getelementptr inbounds nuw i8, ptr %.012.i, i64 9
  %27 = load i8, ptr %26, align 1, !tbaa !16
  %28 = icmp eq i8 %27, 3
  br i1 %28, label %29, label %33

29:                                               ; preds = %25
  %30 = getelementptr inbounds nuw i8, ptr %.012.i, i64 16
  %31 = load i64, ptr %30, align 8, !tbaa !16
  %32 = icmp eq i64 %31, %1
  br i1 %32, label %getintfromhash.exit, label %33

33:                                               ; preds = %29, %25
  %34 = getelementptr inbounds nuw i8, ptr %.012.i, i64 12
  %35 = load i32, ptr %34, align 4, !tbaa !16
  %36 = icmp eq i32 %35, 0
  %37 = sext i32 %35 to i64
  %38 = getelementptr inbounds %union.Node, ptr %.012.i, i64 %37
  br i1 %36, label %getintfromhash.exit, label %25

getintfromhash.exit:                              ; preds = %29, %33
  %.0.i = phi ptr [ %.012.i, %29 ], [ @absentkey, %33 ]
  %39 = getelementptr inbounds nuw i8, ptr %.0.i, i64 8
  %40 = load i8, ptr %39, align 8, !tbaa !14
  %41 = and i8 %40, 15
  %42 = icmp eq i8 %41, 0
  br i1 %42, label %47, label %43

43:                                               ; preds = %getintfromhash.exit
  %44 = load i64, ptr %2, align 8, !tbaa !16
  store i64 %44, ptr %.0.i, align 8, !tbaa !16
  %45 = getelementptr inbounds nuw i8, ptr %2, i64 8
  %46 = load i8, ptr %45, align 8, !tbaa !14
  store i8 %46, ptr %39, align 8, !tbaa !14
  br label %finishnodeset.exit

47:                                               ; preds = %getintfromhash.exit
  %48 = icmp eq i8 %40, 32
  br i1 %48, label %finishnodeset.exit, label %49

49:                                               ; preds = %47
  %50 = ptrtoint ptr %.0.i to i64
  %51 = ptrtoint ptr %6 to i64
  %52 = sub i64 %50, %51
  %53 = sdiv exact i64 %52, 24
  %54 = trunc i64 %53 to i32
  %55 = add nsw i32 %54, 3
  br label %finishnodeset.exit

finishnodeset.exit:                               ; preds = %43, %47, %49
  %.0.i3 = phi i32 [ 0, %43 ], [ %55, %49 ], [ 1, %47 ]
  ret i32 %.0.i3
}